target datalayout = "e-m:e-p270:32:32-p271:32:32-p272:64:64-i64:64-i128:128-f80:128-n8:16:32:64-S128"
target triple = "x86_64-unknown-linux-gnu"

%"class.eastl::any" = type { %"union.eastl::any::storage", ptr }
%"union.eastl::any::storage" = type { ptr, [24 x i8] }

@_ZTIZ7TestAnyvE11custom_type = internal constant { ptr, ptr } { ptr getelementptr inbounds (ptr, ptr @_ZTVN10__cxxabiv117__class_type_infoE, i64 2), ptr @_ZTSZ7TestAnyvE11custom_type }, align 8

; Function Attrs: mustprogress nounwind uwtable
define internal noundef nonnull align 4 dereferenceable(4) ptr @_ZN5eastl7forwardIZ7TestAnyvE11custom_typeEEOT_RNS_16remove_referenceIS2_E4typeE(ptr noundef nonnull align 4 dereferenceable(4) %x) #1 {
entry:
  %x.addr = alloca ptr, align 8
  store ptr %x, ptr %x.addr, align 8
  %0 = load ptr, ptr %x.addr, align 8
  ret ptr %0
}

; Function Attrs: mustprogress nounwind uwtable
define internal noundef nonnull align 4 dereferenceable(4) ptr @_ZN5eastl7forwardIRZ7TestAnyvE11custom_typeEEOT_RNS_16remove_referenceIS3_E4typeE(ptr noundef nonnull align 4 dereferenceable(4) %x) #1 {
entry:
  %x.addr = alloca ptr, align 8
  store ptr %x, ptr %x.addr, align 8
  %0 = load ptr, ptr %x.addr, align 8
  ret ptr %0
}

; Function Attrs: mustprogress nounwind uwtable
define internal void @_ZN5eastl3any24storage_handler_internalIZ7TestAnyvE11custom_typeE9constructIS2_EEvRNS0_7storageEOT_(ptr noundef nonnull align 8 dereferenceable(32) %s, ptr noundef nonnull align 4 dereferenceable(4) %v) #1 align 2 {
entry:
  %s.addr = alloca ptr, align 8
  %v.addr = alloca ptr, align 8
  store ptr %s, ptr %s.addr, align 8
  store ptr %v, ptr %v.addr, align 8
  %0 = load ptr, ptr %s.addr, align 8
  %1 = load ptr, ptr %v.addr, align 8
  %call = call noundef nonnull align 4 dereferenceable(4) ptr @_ZN5eastl7forwardIZ7TestAnyvE11custom_typeEEOT_RNS_16remove_referenceIS2_E4typeE(ptr noundef nonnull align 4 dereferenceable(4) %1) #9
  call void @llvm.memcpy.p0.p0.i64(ptr align 8 %0, ptr align 4 %call, i64 4, i1 false)
  ret void
}

; Function Attrs: mustprogress nounwind uwtable
define internal noundef nonnull align 4 dereferenceable(4) ptr @_ZN5eastl4moveIRZ7TestAnyvE11custom_typeEEONS_16remove_referenceIT_E4typeEOS4_(ptr noundef nonnull align 4 dereferenceable(4) %x) #1 {
entry:
  %x.addr = alloca ptr, align 8
  store ptr %x, ptr %x.addr, align 8
  %0 = load ptr, ptr %x.addr, align 8
  ret ptr %0
}

; Function Attrs: mustprogress nounwind uwtable
define internal void @_ZN5eastl3any24storage_handler_internalIZ7TestAnyvE11custom_typeE9constructIRS2_EEvRNS0_7storageEOT_(ptr noundef nonnull align 8 dereferenceable(32) %s, ptr noundef nonnull align 4 dereferenceable(4) %v) #1 align 2 {
entry:
  %s.addr = alloca ptr, align 8
  %v.addr = alloca ptr, align 8
  store ptr %s, ptr %s.addr, align 8
  store ptr %v, ptr %v.addr, align 8
  %0 = load ptr, ptr %s.addr, align 8
  %1 = load ptr, ptr %v.addr, align 8
  %call = call noundef nonnull align 4 dereferenceable(4) ptr @_ZN5eastl7forwardIRZ7TestAnyvE11custom_typeEEOT_RNS_16remove_referenceIS3_E4typeE(ptr noundef nonnull align 4 dereferenceable(4) %1) #9
  call void @llvm.memcpy.p0.p0.i64(ptr align 8 %0, ptr align 4 %call, i64 4, i1 false)
  ret void
}

; Function Attrs: mustprogress nounwind uwtable
define internal void @_ZN5eastl3any24storage_handler_internalIZ7TestAnyvE11custom_typeE7destroyERS0_(ptr noundef nonnull align 8 dereferenceable(40) %refAny) #1 align 2 {
entry:
  %refAny.addr = alloca ptr, align 8
  %t = alloca ptr, align 8
  store ptr %refAny, ptr %refAny.addr, align 8
  %0 = load ptr, ptr %refAny.addr, align 8
  %m_storage = getelementptr inbounds %"class.eastl::any", ptr %0, i32 0, i32 0
  store ptr %m_storage, ptr %t, align 8
  %1 = load ptr, ptr %refAny.addr, align 8
  %m_handler = getelementptr inbounds %"class.eastl::any", ptr %1, i32 0, i32 1
  store ptr null, ptr %m_handler, align 8
  ret void
}

; Function Attrs: mustprogress uwtable
define internal noundef ptr @_ZN5eastl3any24storage_handler_internalIZ7TestAnyvE11custom_typeE12handler_funcENS0_17storage_operationEPKS0_PS0_(i32 noundef %op, ptr noundef %pThis, ptr noundef %pOther) #0 align 2 {
entry:
  %retval = alloca ptr, align 8
  %op.addr = alloca i32, align 4
  %pThis.addr = alloca ptr, align 8
  %pOther.addr = alloca ptr, align 8
  store i32 %op, ptr %op.addr, align 4
  store ptr %pThis, ptr %pThis.addr, align 8
  store ptr %pOther, ptr %pOther.addr, align 8
  %0 = load i32, ptr %op.addr, align 4
  switch i32 %0, label %sw.default [
    i32 0, label %sw.bb
    i32 1, label %sw.bb1
    i32 2, label %sw.bb2
    i32 3, label %sw.bb5
    i32 4, label %sw.bb8
  ]

sw.bb:                                            ; preds = %entry
  %1 = load ptr, ptr %pThis.addr, align 8
  %m_storage = getelementptr inbounds %"class.eastl::any", ptr %1, i32 0, i32 0
  store ptr %m_storage, ptr %retval, align 8
  br label %return

sw.bb1:                                           ; preds = %entry
  %2 = load ptr, ptr %pThis.addr, align 8
  call void @_ZN5eastl3any24storage_handler_internalIZ7TestAnyvE11custom_typeE7destroyERS0_(ptr noundef nonnull align 8 dereferenceable(40) %2)
  br label %sw.epilog

sw.bb2:                                           ; preds = %entry
  %3 = load ptr, ptr %pOther.addr, align 8
  %m_storage3 = getelementptr inbounds %"class.eastl::any", ptr %3, i32 0, i32 0
  %4 = load ptr, ptr %pThis.addr, align 8
  %m_storage4 = getelementptr inbounds %"class.eastl::any", ptr %4, i32 0, i32 0
  call void @_ZN5eastl3any24storage_handler_internalIZ7TestAnyvE11custom_typeE9constructIRS2_EEvRNS0_7storageEOT_(ptr noundef nonnull align 8 dereferenceable(32) %m_storage3, ptr noundef nonnull align 4 dereferenceable(4) %m_storage4)
  br label %sw.epilog

sw.bb5:                                           ; preds = %entry
  %5 = load ptr, ptr %pOther.addr, align 8
  %m_storage6 = getelementptr inbounds %"class.eastl::any", ptr %5, i32 0, i32 0
  %6 = load ptr, ptr %pThis.addr, align 8
  %m_storage7 = getelementptr inbounds %"class.eastl::any", ptr %6, i32 0, i32 0
  %call = call noundef nonnull align 4 dereferenceable(4) ptr @_ZN5eastl4moveIRZ7TestAnyvE11custom_typeEEONS_16remove_referenceIT_E4typeEOS4_(ptr noundef nonnull align 4 dereferenceable(4) %m_storage7) #9
  call void @_ZN5eastl3any24storage_handler_internalIZ7TestAnyvE11custom_typeE9constructIS2_EEvRNS0_7storageEOT_(ptr noundef nonnull align 8 dereferenceable(32) %m_storage6, ptr noundef nonnull align 4 dereferenceable(4) %call)
  %7 = load ptr, ptr %pThis.addr, align 8
  call void @_ZN5eastl3any24storage_handler_internalIZ7TestAnyvE11custom_typeE7destroyERS0_(ptr noundef nonnull align 8 dereferenceable(40) %7)
  br label %sw.epilog

sw.bb8:                                           ; preds = %entry
  store ptr @_ZTIZ7TestAnyvE11custom_type, ptr %retval, align 8
  br label %return

sw.default:                                       ; preds = %entry
  br label %sw.epilog

sw.epilog:                                        ; preds = %sw.default, %sw.bb5, %sw.bb2, %sw.bb1
  store ptr null, ptr %retval, align 8
  br label %return

return:                                           ; preds = %sw.epilog, %sw.bb8, %sw.bb
  %8 = load ptr, ptr %retval, align 8
  ret ptr %8
}