; Function Attrs: mustprogress nofree norecurse nosync nounwind willreturn memory(argmem: readwrite) uwtable
define internal noundef ptr @_ZN5eastl3any24storage_handler_internalIZ7TestAnyvE11custom_typeE12handler_funcENS0_17storage_operationEPKS0_PS0_(i32 noundef %op, ptr noundef %pThis, ptr noundef writeonly captures(none) %pOther) #9 align 2 {
entry:
  switch i32 %op, label %sw.epilog [
    i32 0, label %return
    i32 1, label %sw.bb1
    i32 2, label %sw.bb2
    i32 3, label %sw.bb5
    i32 4, label %sw.bb8
  ]

sw.bb1:                                           ; preds = %entry
  %m_handler.i = getelementptr inbounds nuw i8, ptr %pThis, i64 32
  store ptr null, ptr %m_handler.i, align 8
  br label %sw.epilog

sw.bb2:                                           ; preds = %entry
  %pThis.val = load i32, ptr %pThis, align 4
  store i32 %pThis.val, ptr %pOther, align 8
  br label %sw.epilog

sw.bb5:                                           ; preds = %entry
  %call.val = load i32, ptr %pThis, align 4
  store i32 %call.val, ptr %pOther, align 8
  %m_handler.i6 = getelementptr inbounds nuw i8, ptr %pThis, i64 32
  store ptr null, ptr %m_handler.i6, align 8
  br label %sw.epilog

sw.bb8:                                           ; preds = %entry
  br label %return

sw.epilog:                                        ; preds = %entry, %sw.bb5, %sw.bb2, %sw.bb1
  br label %return

return:                                           ; preds = %entry, %sw.epilog, %sw.bb8
  %retval.0 = phi ptr [ null, %sw.epilog ], [ @_ZTIZ7TestAnyvE11custom_type, %sw.bb8 ], [ %pThis, %entry ]
  ret ptr %retval.0
}